target datalayout = "e-m:e-p270:32:32-p271:32:32-p272:64:64-i64:64-i128:128-f80:128-n8:16:32:64-S128"
target triple = "x86_64-pc-linux-gnu"

@hf_rdm_pd_dimmer_info_minimum_level_lower_limit = internal global i32 0, align 4
@hf_rdm_pd_dimmer_info_minimum_level_upper_limit = internal global i32 0, align 4
@hf_rdm_pd_dimmer_info_maximum_level_lower_limit = internal global i32 0, align 4
@hf_rdm_pd_dimmer_info_maximum_level_upper_limit = internal global i32 0, align 4
@hf_rdm_pd_dimmer_info_number_of_supported_curves = internal global i32 0, align 4
@hf_rdm_pd_dimmer_info_levels_resolution = internal global i32 0, align 4
@hf_rdm_pd_dimmer_info_minimum_level_split_levels_supported = internal global i32 0, align 4

; Function Attrs: null_pointer_is_valid sspstrong uwtable
define internal void @rdm_proto_tree_add_numeric_item(ptr noundef %0, i32 noundef %1, ptr noundef %2, ptr noundef %3, i8 noundef zeroext %4) #1 {
  %6 = alloca ptr, align 8
  %7 = alloca i32, align 4
  %8 = alloca ptr, align 8
  %9 = alloca ptr, align 8
  %10 = alloca i8, align 1
  %11 = alloca i32, align 4
  store ptr %0, ptr %6, align 8
  store i32 %1, ptr %7, align 4
  store ptr %2, ptr %8, align 8
  store ptr %3, ptr %9, align 8
  store i8 %4, ptr %10, align 1
  call void @llvm.lifetime.start.p0(i64 4, ptr %11) #4
  %12 = load ptr, ptr %9, align 8
  %13 = load i32, ptr %12, align 4
  store i32 %13, ptr %11, align 4
  %14 = load ptr, ptr %6, align 8
  %15 = load i32, ptr %7, align 4
  %16 = load ptr, ptr %8, align 8
  %17 = load i32, ptr %11, align 4
  %18 = load i8, ptr %10, align 1
  %19 = zext i8 %18 to i32
  %20 = call ptr @proto_tree_add_item(ptr noundef %14, i32 noundef %15, ptr noundef %16, i32 noundef %17, i32 noundef %19, i32 noundef 0)
  %21 = load i8, ptr %10, align 1
  %22 = zext i8 %21 to i32
  %23 = load ptr, ptr %9, align 8
  %24 = load i32, ptr %23, align 4
  %25 = add i32 %24, %22
  store i32 %25, ptr %23, align 4
  call void @llvm.lifetime.end.p0(i64 4, ptr %11) #4
  ret void
}

; Function Attrs: null_pointer_is_valid sspstrong uwtable
define internal i32 @dissect_rdm_pd_dimmer_info(ptr noundef %0, i32 noundef %1, ptr noundef %2, i8 noundef zeroext %3) #1 {
  %5 = alloca ptr, align 8
  %6 = alloca i32, align 4
  %7 = alloca ptr, align 8
  %8 = alloca i8, align 1
  store ptr %0, ptr %5, align 8
  store i32 %1, ptr %6, align 4
  store ptr %2, ptr %7, align 8
  store i8 %3, ptr %8, align 1
  %9 = load i8, ptr %8, align 1
  %10 = zext i8 %9 to i32
  switch i32 %10, label %33 [
    i32 33, label %11
  ]

11:                                               ; preds = %4
  %12 = load ptr, ptr %7, align 8
  %13 = load i32, ptr @hf_rdm_pd_dimmer_info_minimum_level_lower_limit, align 4
  %14 = load ptr, ptr %5, align 8
  call void @rdm_proto_tree_add_numeric_item(ptr noundef %12, i32 noundef %13, ptr noundef %14, ptr noundef %6, i8 noundef zeroext 2)
  %15 = load ptr, ptr %7, align 8
  %16 = load i32, ptr @hf_rdm_pd_dimmer_info_minimum_level_upper_limit, align 4
  %17 = load ptr, ptr %5, align 8
  call void @rdm_proto_tree_add_numeric_item(ptr noundef %15, i32 noundef %16, ptr noundef %17, ptr noundef %6, i8 noundef zeroext 2)
  %18 = load ptr, ptr %7, align 8
  %19 = load i32, ptr @hf_rdm_pd_dimmer_info_maximum_level_lower_limit, align 4
  %20 = load ptr, ptr %5, align 8
  call void @rdm_proto_tree_add_numeric_item(ptr noundef %18, i32 noundef %19, ptr noundef %20, ptr noundef %6, i8 noundef zeroext 2)
  %21 = load ptr, ptr %7, align 8
  %22 = load i32, ptr @hf_rdm_pd_dimmer_info_maximum_level_upper_limit, align 4
  %23 = load ptr, ptr %5, align 8
  call void @rdm_proto_tree_add_numeric_item(ptr noundef %21, i32 noundef %22, ptr noundef %23, ptr noundef %6, i8 noundef zeroext 2)
  %24 = load ptr, ptr %7, align 8
  %25 = load i32, ptr @hf_rdm_pd_dimmer_info_number_of_supported_curves, align 4
  %26 = load ptr, ptr %5, align 8
  call void @rdm_proto_tree_add_numeric_item(ptr noundef %24, i32 noundef %25, ptr noundef %26, ptr noundef %6, i8 noundef zeroext 1)
  %27 = load ptr, ptr %7, align 8
  %28 = load i32, ptr @hf_rdm_pd_dimmer_info_levels_resolution, align 4
  %29 = load ptr, ptr %5, align 8
  call void @rdm_proto_tree_add_numeric_item(ptr noundef %27, i32 noundef %28, ptr noundef %29, ptr noundef %6, i8 noundef zeroext 1)
  %30 = load ptr, ptr %7, align 8
  %31 = load i32, ptr @hf_rdm_pd_dimmer_info_minimum_level_split_levels_supported, align 4
  %32 = load ptr, ptr %5, align 8
  call void @rdm_proto_tree_add_numeric_item(ptr noundef %30, i32 noundef %31, ptr noundef %32, ptr noundef %6, i8 noundef zeroext 1)
  br label %33

33:                                               ; preds = %4, %11
  %34 = load i32, ptr %6, align 4
  ret i32 %34
}