; Function Attrs: null_pointer_is_valid sspstrong uwtable
define internal fastcc range(i32 23, 35) i32 @dissect_rdm_pd_dimmer_info(ptr noundef %0, ptr noundef %1, i8 noundef zeroext %2) unnamed_addr #1 {
  %cond = icmp eq i8 %2, 33
  br i1 %cond, label %4, label %19

4:                                                ; preds = %3
  %5 = load i32, ptr @hf_rdm_pd_dimmer_info_minimum_level_lower_limit, align 4
  %6 = tail call ptr @proto_tree_add_item(ptr noundef %1, i32 noundef %5, ptr noundef %0, i32 noundef 23, i32 noundef 2, i32 noundef 0)
  %7 = load i32, ptr @hf_rdm_pd_dimmer_info_minimum_level_upper_limit, align 4
  %8 = tail call ptr @proto_tree_add_item(ptr noundef %1, i32 noundef %7, ptr noundef %0, i32 noundef 25, i32 noundef 2, i32 noundef 0)
  %9 = load i32, ptr @hf_rdm_pd_dimmer_info_maximum_level_lower_limit, align 4
  %10 = tail call ptr @proto_tree_add_item(ptr noundef %1, i32 noundef %9, ptr noundef %0, i32 noundef 27, i32 noundef 2, i32 noundef 0)
  %11 = load i32, ptr @hf_rdm_pd_dimmer_info_maximum_level_upper_limit, align 4
  %12 = tail call ptr @proto_tree_add_item(ptr noundef %1, i32 noundef %11, ptr noundef %0, i32 noundef 29, i32 noundef 2, i32 noundef 0)
  %13 = load i32, ptr @hf_rdm_pd_dimmer_info_number_of_supported_curves, align 4
  %14 = tail call ptr @proto_tree_add_item(ptr noundef %1, i32 noundef %13, ptr noundef %0, i32 noundef 31, i32 noundef 1, i32 noundef 0)
  %15 = load i32, ptr @hf_rdm_pd_dimmer_info_levels_resolution, align 4
  %16 = tail call ptr @proto_tree_add_item(ptr noundef %1, i32 noundef %15, ptr noundef %0, i32 noundef 32, i32 noundef 1, i32 noundef 0)
  %17 = load i32, ptr @hf_rdm_pd_dimmer_info_minimum_level_split_levels_supported, align 4
  %18 = tail call ptr @proto_tree_add_item(ptr noundef %1, i32 noundef %17, ptr noundef %0, i32 noundef 33, i32 noundef 1, i32 noundef 0)
  br label %19

19:                                               ; preds = %3, %4
  %.0 = phi i32 [ 34, %4 ], [ 23, %3 ]
  ret i32 %.0
}